target datalayout = "e-m:e-p270:32:32-p271:32:32-p272:64:64-i64:64-i128:128-f80:128-n8:16:32:64-S128"
target triple = "x86_64-pc-linux-gnu"

%struct._DOT11DECRYPT_SEC_ASSOCIATION_ID = type { [6 x i8], [6 x i8] }
%struct._DOT11DECRYPT_SEC_ASSOCIATION = type { ptr, %struct._DOT11DECRYPT_SEC_ASSOCIATION_ID, ptr, i8, i8, %struct.anon }
%struct.anon = type { i8, [32 x i8], i32, i32, i32, [88 x i8], i32 }
%struct._DOT11DECRYPT_CONTEXT = type { ptr, [64 x %struct._DOT11DECRYPT_KEY_ITEM], i64, [32 x i8], i64 }
%struct._DOT11DECRYPT_KEY_ITEM = type { i8, %union.DOT11DECRYPT_KEY_ITEMDATA, %struct.DOT11DECRYPT_KEY_ITEMDATA_TK, %struct.DOT11DECRYPT_KEY_ITEMDATA_MSK, %struct.DOT11DECRYPT_KEY_ITEMDATA_PWD }
%union.DOT11DECRYPT_KEY_ITEMDATA = type { %struct.DOT11DECRYPT_KEY_ITEMDATA_WEP, [104 x i8] }
%struct.DOT11DECRYPT_KEY_ITEMDATA_WEP = type { [32 x i8], i64 }
%struct.DOT11DECRYPT_KEY_ITEMDATA_TK = type { [32 x i8], i8 }
%struct.DOT11DECRYPT_KEY_ITEMDATA_MSK = type { [128 x i8], i8 }
%struct.DOT11DECRYPT_KEY_ITEMDATA_PWD = type { [63 x i8], i64, [32 x i8], i64 }

@broadcast_mac = hidden constant [6 x i8] c"\FF\FF\FF\FF\FF\FF", align 1
@.str = private unnamed_addr constant [13 x i8] c"dot11decrypt\00", align 1
@.str.1 = private unnamed_addr constant [26 x i8] c"epan/crypt/dot11decrypt.c\00", align 1
@.str.37 = private unnamed_addr constant [29 x i8] c"Failed to alloc broadcast sa\00", align 1
@__func__.Dot11DecryptCopyBroadcastKey = private unnamed_addr constant [29 x i8] c"Dot11DecryptCopyBroadcastKey\00", align 1

; Function Attrs: nounwind null_pointer_is_valid sspstrong uwtable
define internal ptr @Dot11DecryptPrependSa(ptr noundef %0, ptr noundef %1) #4 {
  %3 = alloca ptr, align 8
  %4 = alloca ptr, align 8
  %5 = alloca %struct._DOT11DECRYPT_SEC_ASSOCIATION, align 8
  store ptr %0, ptr %3, align 8
  store ptr %1, ptr %4, align 8
  call void @llvm.lifetime.start.p0(i64 176, ptr %5) #16
  %6 = load ptr, ptr %3, align 8
  call void @llvm.memcpy.p0.p0.i64(ptr align 8 %5, ptr align 8 %6, i64 176, i1 false)
  %7 = load ptr, ptr %3, align 8
  %8 = load ptr, ptr %4, align 8
  call void @llvm.memcpy.p0.p0.i64(ptr align 8 %7, ptr align 8 %8, i64 176, i1 false)
  %9 = load ptr, ptr %4, align 8
  call void @llvm.memcpy.p0.p0.i64(ptr align 8 %9, ptr align 8 %5, i64 176, i1 false)
  %10 = load ptr, ptr %4, align 8
  %11 = load ptr, ptr %3, align 8
  %12 = getelementptr inbounds nuw %struct._DOT11DECRYPT_SEC_ASSOCIATION, ptr %11, i32 0, i32 0
  store ptr %10, ptr %12, align 8
  %13 = load ptr, ptr %3, align 8
  call void @llvm.lifetime.end.p0(i64 176, ptr %5) #16
  ret ptr %13
}

; Function Attrs: null_pointer_is_valid sspstrong uwtable
define internal ptr @Dot11DecryptAddSa(ptr noundef %0, ptr noundef %1, ptr noundef %2) #0 {
  %4 = alloca ptr, align 8
  %5 = alloca ptr, align 8
  %6 = alloca ptr, align 8
  %7 = alloca ptr, align 8
  %8 = alloca ptr, align 8
  store ptr %0, ptr %4, align 8
  store ptr %1, ptr %5, align 8
  store ptr %2, ptr %6, align 8
  call void @llvm.lifetime.start.p0(i64 8, ptr %7) #16
  %9 = load ptr, ptr %4, align 8
  %10 = load ptr, ptr %5, align 8
  %11 = call ptr @Dot11DecryptGetSa(ptr noundef %9, ptr noundef %10)
  store ptr %11, ptr %7, align 8
  %12 = load ptr, ptr %7, align 8
  %13 = icmp ne ptr %12, null
  br i1 %13, label %14, label %18

14:                                               ; preds = %3
  %15 = load ptr, ptr %7, align 8
  %16 = load ptr, ptr %6, align 8
  %17 = call ptr @Dot11DecryptPrependSa(ptr noundef %15, ptr noundef %16)
  store ptr %17, ptr %6, align 8
  br label %27

18:                                               ; preds = %3
  call void @llvm.lifetime.start.p0(i64 8, ptr %8) #16
  %19 = load ptr, ptr %5, align 8
  %20 = call ptr @g_memdup2(ptr noundef %19, i64 noundef 12) #17
  store ptr %20, ptr %8, align 8
  %21 = load ptr, ptr %4, align 8
  %22 = getelementptr inbounds nuw %struct._DOT11DECRYPT_CONTEXT, ptr %21, i32 0, i32 0
  %23 = load ptr, ptr %22, align 8
  %24 = load ptr, ptr %8, align 8
  %25 = load ptr, ptr %6, align 8
  %26 = call i32 @g_hash_table_insert(ptr noundef %23, ptr noundef %24, ptr noundef %25)
  call void @llvm.lifetime.end.p0(i64 8, ptr %8) #16
  br label %27

27:                                               ; preds = %18, %14
  %28 = load ptr, ptr %6, align 8
  call void @llvm.lifetime.end.p0(i64 8, ptr %7) #16
  ret ptr %28
}

; Function Attrs: alwaysinline nounwind
define internal ptr @memset.inline(ptr %0, i32 %1, i64 %2) #2 {
  %4 = alloca ptr, align 8
  %5 = alloca i32, align 4
  %6 = alloca i64, align 8
  store ptr %0, ptr %4, align 8
  store i32 %1, ptr %5, align 4
  store i64 %2, ptr %6, align 8
  %7 = load ptr, ptr %4, align 8
  %8 = load i32, ptr %5, align 4
  %9 = load i64, ptr %6, align 8
  %10 = load ptr, ptr %4, align 8
  %11 = call i64 @llvm.objectsize.i64.p0(ptr %10, i1 false, i1 true, i1 true)
  %12 = call ptr @__memset_chk(ptr noundef %7, i32 noundef %8, i64 noundef %9, i64 noundef %11) #16
  ret ptr %12
}

; Function Attrs: null_pointer_is_valid sspstrong uwtable
define internal ptr @Dot11DecryptNewSa(ptr noundef %0) #0 {
  %2 = alloca ptr, align 8
  %3 = alloca ptr, align 8
  %4 = alloca i64, align 8
  %5 = alloca i64, align 8
  %6 = alloca ptr, align 8
  %7 = alloca ptr, align 8
  store ptr %0, ptr %2, align 8
  call void @llvm.lifetime.start.p0(i64 8, ptr %3) #16
  call void @llvm.lifetime.start.p0(i64 8, ptr %4) #16
  store i64 1, ptr %4, align 8
  call void @llvm.lifetime.start.p0(i64 8, ptr %5) #16
  store i64 176, ptr %5, align 8
  call void @llvm.lifetime.start.p0(i64 8, ptr %6) #16
  %8 = load i64, ptr %5, align 8
  %9 = icmp eq i64 %8, 1
  br i1 %9, label %10, label %13

10:                                               ; preds = %1
  %11 = load i64, ptr %4, align 8
  %12 = call noalias ptr @g_malloc0(i64 noundef %11) #19
  store ptr %12, ptr %6, align 8
  br label %34

13:                                               ; preds = %1
  %14 = load i64, ptr %4, align 8
  %15 = call i1 @llvm.is.constant.i64(i64 %14)
  br i1 %15, label %16, label %29

16:                                               ; preds = %13
  %17 = load i64, ptr %5, align 8
  %18 = icmp eq i64 %17, 0
  br i1 %18, label %24, label %19

19:                                               ; preds = %16
  %20 = load i64, ptr %4, align 8
  %21 = load i64, ptr %5, align 8
  %22 = udiv i64 -1, %21
  %23 = icmp ule i64 %20, %22
  br i1 %23, label %24, label %29

24:                                               ; preds = %19, %16
  %25 = load i64, ptr %4, align 8
  %26 = load i64, ptr %5, align 8
  %27 = mul i64 %25, %26
  %28 = call noalias ptr @g_malloc0(i64 noundef %27) #19
  store ptr %28, ptr %6, align 8
  br label %33

29:                                               ; preds = %19, %13
  %30 = load i64, ptr %4, align 8
  %31 = load i64, ptr %5, align 8
  %32 = call noalias ptr @g_malloc0_n(i64 noundef %30, i64 noundef %31) #20
  store ptr %32, ptr %6, align 8
  br label %33

33:                                               ; preds = %29, %24
  br label %34

34:                                               ; preds = %33, %10
  %35 = load ptr, ptr %6, align 8
  store ptr %35, ptr %7, align 8
  call void @llvm.lifetime.end.p0(i64 8, ptr %6) #16
  call void @llvm.lifetime.end.p0(i64 8, ptr %5) #16
  call void @llvm.lifetime.end.p0(i64 8, ptr %4) #16
  %36 = load ptr, ptr %7, align 8
  store ptr %36, ptr %3, align 8
  %37 = load ptr, ptr %3, align 8
  %38 = icmp ne ptr %37, null
  br i1 %38, label %39, label %43

39:                                               ; preds = %34
  %40 = load ptr, ptr %3, align 8
  %41 = getelementptr inbounds nuw %struct._DOT11DECRYPT_SEC_ASSOCIATION, ptr %40, i32 0, i32 1
  %42 = load ptr, ptr %2, align 8
  call void @llvm.memcpy.p0.p0.i64(ptr align 8 %41, ptr align 1 %42, i64 12, i1 false)
  br label %43

43:                                               ; preds = %39, %34
  %44 = load ptr, ptr %3, align 8
  call void @llvm.lifetime.end.p0(i64 8, ptr %3) #16
  ret ptr %44
}

; Function Attrs: alwaysinline nounwind
define internal ptr @memcpy.inline(ptr noalias %0, ptr noalias %1, i64 %2) #2 {
  %4 = alloca ptr, align 8
  %5 = alloca ptr, align 8
  %6 = alloca i64, align 8
  store ptr %0, ptr %4, align 8
  store ptr %1, ptr %5, align 8
  store i64 %2, ptr %6, align 8
  %7 = load ptr, ptr %4, align 8
  %8 = load ptr, ptr %5, align 8
  %9 = load i64, ptr %6, align 8
  %10 = load ptr, ptr %4, align 8
  %11 = call i64 @llvm.objectsize.i64.p0(ptr %10, i1 false, i1 true, i1 true)
  %12 = call ptr @__memcpy_chk(ptr noundef %7, ptr noundef %8, i64 noundef %9, i64 noundef %11) #16
  ret ptr %12
}

; Function Attrs: null_pointer_is_valid sspstrong uwtable
define internal ptr @Dot11DecryptGetSa(ptr noundef %0, ptr noundef %1) #0 {
  %3 = alloca ptr, align 8
  %4 = alloca ptr, align 8
  store ptr %0, ptr %3, align 8
  store ptr %1, ptr %4, align 8
  %5 = load ptr, ptr %3, align 8
  %6 = getelementptr inbounds nuw %struct._DOT11DECRYPT_CONTEXT, ptr %5, i32 0, i32 0
  %7 = load ptr, ptr %6, align 8
  %8 = load ptr, ptr %4, align 8
  %9 = call ptr @g_hash_table_lookup(ptr noundef %7, ptr noundef %8)
  ret ptr %9
}

; Function Attrs: null_pointer_is_valid sspstrong uwtable
define internal i32 @Dot11DecryptCopyBroadcastKey(ptr noundef %0, ptr noundef %1, i64 noundef %2, ptr noundef %3) #0 {
  %5 = alloca i32, align 4
  %6 = alloca ptr, align 8
  %7 = alloca ptr, align 8
  %8 = alloca i64, align 8
  %9 = alloca ptr, align 8
  %10 = alloca %struct._DOT11DECRYPT_SEC_ASSOCIATION_ID, align 1
  %11 = alloca ptr, align 8
  %12 = alloca ptr, align 8
  %13 = alloca i32, align 4
  store ptr %0, ptr %6, align 8
  store ptr %1, ptr %7, align 8
  store i64 %2, ptr %8, align 8
  store ptr %3, ptr %9, align 8
  call void @llvm.lifetime.start.p0(i64 12, ptr %10) #16
  call void @llvm.lifetime.start.p0(i64 8, ptr %11) #16
  call void @llvm.lifetime.start.p0(i64 8, ptr %12) #16
  %14 = load ptr, ptr %7, align 8
  %15 = icmp ne ptr %14, null
  br i1 %15, label %16, label %19

16:                                               ; preds = %4
  %17 = load i64, ptr %8, align 8
  %18 = icmp eq i64 %17, 0
  br i1 %18, label %19, label %23

19:                                               ; preds = %16, %4
  br label %20

20:                                               ; preds = %19
  br label %21

21:                                               ; preds = %20
  br label %22

22:                                               ; preds = %21
  store i32 4, ptr %5, align 4
  store i32 1, ptr %13, align 4
  br label %104

23:                                               ; preds = %16
  %24 = load i64, ptr %8, align 8
  %25 = icmp ugt i64 %24, 56
  br i1 %25, label %26, label %30

26:                                               ; preds = %23
  br label %27

27:                                               ; preds = %26
  br label %28

28:                                               ; preds = %27
  br label %29

29:                                               ; preds = %28
  store i32 4, ptr %5, align 4
  store i32 1, ptr %13, align 4
  br label %104

30:                                               ; preds = %23
  %31 = load ptr, ptr %6, align 8
  %32 = load ptr, ptr %9, align 8
  %33 = call ptr @Dot11DecryptGetSa(ptr noundef %31, ptr noundef %32)
  store ptr %33, ptr %11, align 8
  %34 = load ptr, ptr %11, align 8
  %35 = icmp eq ptr %34, null
  br i1 %35, label %36, label %40

36:                                               ; preds = %30
  br label %37

37:                                               ; preds = %36
  br label %38

38:                                               ; preds = %37
  br label %39

39:                                               ; preds = %38
  store i32 4, ptr %5, align 4
  store i32 1, ptr %13, align 4
  br label %104

40:                                               ; preds = %30
  %41 = getelementptr inbounds nuw %struct._DOT11DECRYPT_SEC_ASSOCIATION_ID, ptr %10, i32 0, i32 0
  %42 = getelementptr inbounds [6 x i8], ptr %41, i64 0, i64 0
  %43 = load ptr, ptr %9, align 8
  %44 = getelementptr inbounds nuw %struct._DOT11DECRYPT_SEC_ASSOCIATION_ID, ptr %43, i32 0, i32 0
  %45 = getelementptr inbounds [6 x i8], ptr %44, i64 0, i64 0
  %46 = call ptr @memcpy.inline(ptr noundef %42, ptr noundef %45, i64 noundef 6) #16
  %47 = getelementptr inbounds nuw %struct._DOT11DECRYPT_SEC_ASSOCIATION_ID, ptr %10, i32 0, i32 1
  %48 = getelementptr inbounds [6 x i8], ptr %47, i64 0, i64 0
  %49 = call ptr @memcpy.inline(ptr noundef %48, ptr noundef @broadcast_mac, i64 noundef 6) #16
  %50 = call ptr @Dot11DecryptNewSa(ptr noundef %10)
  store ptr %50, ptr %12, align 8
  %51 = load ptr, ptr %12, align 8
  %52 = icmp eq ptr %51, null
  br i1 %52, label %53, label %57

53:                                               ; preds = %40
  br label %54

54:                                               ; preds = %53
  call void (ptr, i32, ptr, i64, ptr, ptr, ...) @ws_log_full(ptr noundef @.str, i32 noundef 5, ptr noundef @.str.1, i64 noundef 787, ptr noundef @__func__.Dot11DecryptCopyBroadcastKey, ptr noundef @.str.37)
  br label %55

55:                                               ; preds = %54
  br label %56

56:                                               ; preds = %55
  store i32 4, ptr %5, align 4
  store i32 1, ptr %13, align 4
  br label %104

57:                                               ; preds = %40
  %58 = load ptr, ptr %11, align 8
  %59 = getelementptr inbounds nuw %struct._DOT11DECRYPT_SEC_ASSOCIATION, ptr %58, i32 0, i32 5
  %60 = getelementptr inbounds nuw %struct.anon, ptr %59, i32 0, i32 0
  %61 = load i8, ptr %60, align 4
  %62 = load ptr, ptr %12, align 8
  %63 = getelementptr inbounds nuw %struct._DOT11DECRYPT_SEC_ASSOCIATION, ptr %62, i32 0, i32 5
  %64 = getelementptr inbounds nuw %struct.anon, ptr %63, i32 0, i32 0
  store i8 %61, ptr %64, align 4
  %65 = load ptr, ptr %11, align 8
  %66 = getelementptr inbounds nuw %struct._DOT11DECRYPT_SEC_ASSOCIATION, ptr %65, i32 0, i32 5
  %67 = getelementptr inbounds nuw %struct.anon, ptr %66, i32 0, i32 2
  %68 = load i32, ptr %67, align 4
  %69 = load ptr, ptr %12, align 8
  %70 = getelementptr inbounds nuw %struct._DOT11DECRYPT_SEC_ASSOCIATION, ptr %69, i32 0, i32 5
  %71 = getelementptr inbounds nuw %struct.anon, ptr %70, i32 0, i32 2
  store i32 %68, ptr %71, align 4
  %72 = load ptr, ptr %11, align 8
  %73 = getelementptr inbounds nuw %struct._DOT11DECRYPT_SEC_ASSOCIATION, ptr %72, i32 0, i32 5
  %74 = getelementptr inbounds nuw %struct.anon, ptr %73, i32 0, i32 4
  %75 = load i32, ptr %74, align 4
  %76 = load ptr, ptr %12, align 8
  %77 = getelementptr inbounds nuw %struct._DOT11DECRYPT_SEC_ASSOCIATION, ptr %76, i32 0, i32 5
  %78 = getelementptr inbounds nuw %struct.anon, ptr %77, i32 0, i32 3
  store i32 %75, ptr %78, align 4
  %79 = load ptr, ptr %11, align 8
  %80 = getelementptr inbounds nuw %struct._DOT11DECRYPT_SEC_ASSOCIATION, ptr %79, i32 0, i32 5
  %81 = getelementptr inbounds nuw %struct.anon, ptr %80, i32 0, i32 6
  %82 = load i32, ptr %81, align 4
  %83 = load ptr, ptr %12, align 8
  %84 = getelementptr inbounds nuw %struct._DOT11DECRYPT_SEC_ASSOCIATION, ptr %83, i32 0, i32 5
  %85 = getelementptr inbounds nuw %struct.anon, ptr %84, i32 0, i32 6
  store i32 %82, ptr %85, align 4
  %86 = load ptr, ptr %12, align 8
  %87 = getelementptr inbounds nuw %struct._DOT11DECRYPT_SEC_ASSOCIATION, ptr %86, i32 0, i32 4
  store i8 1, ptr %87, align 1
  %88 = load ptr, ptr %12, align 8
  %89 = getelementptr inbounds nuw %struct._DOT11DECRYPT_SEC_ASSOCIATION, ptr %88, i32 0, i32 5
  %90 = getelementptr inbounds nuw %struct.anon, ptr %89, i32 0, i32 5
  %91 = getelementptr inbounds [88 x i8], ptr %90, i64 0, i64 0
  %92 = call ptr @memset.inline(ptr noundef %91, i32 noundef 0, i64 noundef 88) #16
  %93 = load ptr, ptr %12, align 8
  %94 = getelementptr inbounds nuw %struct._DOT11DECRYPT_SEC_ASSOCIATION, ptr %93, i32 0, i32 5
  %95 = getelementptr inbounds nuw %struct.anon, ptr %94, i32 0, i32 5
  %96 = getelementptr inbounds [88 x i8], ptr %95, i64 0, i64 0
  %97 = getelementptr i8, ptr %96, i64 32
  %98 = load ptr, ptr %7, align 8
  %99 = load i64, ptr %8, align 8
  %100 = call ptr @memcpy.inline(ptr noundef %97, ptr noundef %98, i64 noundef %99) #16
  %101 = load ptr, ptr %6, align 8
  %102 = load ptr, ptr %12, align 8
  %103 = call ptr @Dot11DecryptAddSa(ptr noundef %101, ptr noundef %10, ptr noundef %102)
  store i32 -1, ptr %5, align 4
  store i32 1, ptr %13, align 4
  br label %104

104:                                              ; preds = %57, %56, %39, %29, %22
  call void @llvm.lifetime.end.p0(i64 8, ptr %12) #16
  call void @llvm.lifetime.end.p0(i64 8, ptr %11) #16
  call void @llvm.lifetime.end.p0(i64 12, ptr %10) #16
  %105 = load i32, ptr %5, align 4
  ret i32 %105
}