; Function Attrs: null_pointer_is_valid sspstrong uwtable
define internal fastcc range(i32 -1, 5) i32 @Dot11DecryptCopyBroadcastKey(ptr noundef readonly captures(none) %0, ptr noundef readonly captures(address_is_null) %1, i64 noundef range(i64 0, 65536) %2, ptr noundef %3) unnamed_addr #0 {
  %5 = alloca %struct._DOT11DECRYPT_SEC_ASSOCIATION, align 8
  %6 = alloca %struct._DOT11DECRYPT_SEC_ASSOCIATION_ID, align 1
  call void @llvm.lifetime.start.p0(i64 12, ptr nonnull %6) #15
  %7 = icmp eq ptr %1, null
  %8 = icmp eq i64 %2, 0
  %or.cond = or i1 %7, %8
  %9 = icmp samesign ugt i64 %2, 56
  %or.cond28 = select i1 %or.cond, i1 true, i1 %9
  br i1 %or.cond28, label %Dot11DecryptAddSa.exit, label %10

10:                                               ; preds = %4
  %.val = load ptr, ptr %0, align 8
  %11 = tail call ptr @g_hash_table_lookup(ptr noundef %.val, ptr noundef %3)
  %12 = icmp eq ptr %11, null
  br i1 %12, label %Dot11DecryptAddSa.exit, label %13

13:                                               ; preds = %10
  call void @llvm.memcpy.p0.p0.i64(ptr noundef nonnull align 1 dereferenceable(6) %6, ptr noundef align 1 dereferenceable(6) %3, i64 noundef 6, i1 noundef false) #15
  %14 = getelementptr inbounds nuw i8, ptr %6, i64 6
  call void @llvm.memset.p0.i64(ptr noundef nonnull align 1 dereferenceable(6) %14, i8 -1, i64 6, i1 false)
  %15 = tail call noalias dereferenceable_or_null(176) ptr @g_malloc0(i64 noundef 176) #18
  %.not.i = icmp eq ptr %15, null
  br i1 %.not.i, label %16, label %17

16:                                               ; preds = %13
  tail call void (ptr, i32, ptr, i64, ptr, ptr, ...) @ws_log_full(ptr noundef nonnull @.str, i32 noundef 5, ptr noundef nonnull @.str.1, i64 noundef 787, ptr noundef nonnull @__func__.Dot11DecryptCopyBroadcastKey, ptr noundef nonnull @.str.37)
  br label %Dot11DecryptAddSa.exit

17:                                               ; preds = %13
  %18 = getelementptr inbounds nuw i8, ptr %15, i64 8
  call void @llvm.memcpy.p0.p0.i64(ptr noundef nonnull align 8 dereferenceable(12) %18, ptr noundef nonnull readonly align 1 dereferenceable(12) %6, i64 12, i1 false)
  %19 = getelementptr inbounds nuw i8, ptr %11, i64 36
  %20 = load i8, ptr %19, align 4
  %21 = getelementptr inbounds nuw i8, ptr %15, i64 36
  store i8 %20, ptr %21, align 4
  %22 = getelementptr inbounds nuw i8, ptr %11, i64 72
  %23 = load i32, ptr %22, align 4
  %24 = getelementptr inbounds nuw i8, ptr %15, i64 72
  store i32 %23, ptr %24, align 4
  %25 = getelementptr inbounds nuw i8, ptr %11, i64 80
  %26 = load i32, ptr %25, align 4
  %27 = getelementptr inbounds nuw i8, ptr %15, i64 76
  store i32 %26, ptr %27, align 4
  %28 = getelementptr inbounds nuw i8, ptr %11, i64 172
  %29 = load i32, ptr %28, align 4
  %30 = getelementptr inbounds nuw i8, ptr %15, i64 172
  store i32 %29, ptr %30, align 4
  %31 = getelementptr inbounds nuw i8, ptr %15, i64 33
  store i8 1, ptr %31, align 1
  %32 = getelementptr inbounds nuw i8, ptr %15, i64 84
  tail call void @llvm.memset.p0.i64(ptr noundef nonnull align 1 dereferenceable(88) %32, i8 noundef 0, i64 noundef 88, i1 noundef false) #15
  %33 = getelementptr i8, ptr %15, i64 116
  %34 = tail call ptr @__memcpy_chk(ptr noundef %33, ptr noundef nonnull %1, i64 noundef %2, i64 noundef 60) #15, !alias.scope !50
  %.val.i = load ptr, ptr %0, align 8
  %35 = call ptr @g_hash_table_lookup(ptr noundef %.val.i, ptr noundef nonnull %6)
  %.not.i29 = icmp eq ptr %35, null
  br i1 %.not.i29, label %37, label %36

36:                                               ; preds = %17
  call void @llvm.lifetime.start.p0(i64 176, ptr nonnull %5)
  call void @llvm.memcpy.p0.p0.i64(ptr noundef nonnull align 8 dereferenceable(176) %5, ptr noundef nonnull align 8 dereferenceable(176) %35, i64 176, i1 false)
  call void @llvm.memcpy.p0.p0.i64(ptr noundef nonnull align 8 dereferenceable(176) %35, ptr noundef nonnull align 8 dereferenceable(176) %15, i64 176, i1 false)
  call void @llvm.memcpy.p0.p0.i64(ptr noundef nonnull align 8 dereferenceable(176) %15, ptr noundef nonnull align 8 dereferenceable(176) %5, i64 176, i1 false)
  store ptr %15, ptr %35, align 8
  call void @llvm.lifetime.end.p0(i64 176, ptr nonnull %5)
  br label %Dot11DecryptAddSa.exit

37:                                               ; preds = %17
  %38 = call dereferenceable_or_null(12) ptr @g_memdup2(ptr noundef nonnull %6, i64 noundef 12) #16
  %39 = load ptr, ptr %0, align 8
  %40 = call i32 @g_hash_table_insert(ptr noundef %39, ptr noundef %38, ptr noundef nonnull %15)
  br label %Dot11DecryptAddSa.exit

Dot11DecryptAddSa.exit:                           ; preds = %37, %36, %10, %4, %16
  %.0 = phi i32 [ 4, %16 ], [ 4, %4 ], [ 4, %10 ], [ -1, %36 ], [ -1, %37 ]
  call void @llvm.lifetime.end.p0(i64 12, ptr nonnull %6) #15
  ret i32 %.0
}